target datalayout = "e-m:e-p270:32:32-p271:32:32-p272:64:64-i64:64-i128:128-f80:128-n8:16:32:64-S128"
target triple = "x86_64-unknown-linux-gnu"

%"class.icu_75::RuleBasedBreakIterator" = type <{ %"class.icu_75::BreakIterator.base", i8, %struct.UText, ptr, i32, i32, i32, [4 x i8], ptr, ptr, ptr, ptr, i32, [4 x i8], ptr, %"class.icu_75::UCharCharacterIterator", i8, [7 x i8], ptr, i8, [7 x i8] }>
%"class.icu_75::BreakIterator.base" = type <{ %"class.icu_75::UObject", [157 x i8], [157 x i8], [157 x i8] }>
%"class.icu_75::UObject" = type { ptr }
%struct.UText = type { i32, i32, i32, i32, i64, i32, i32, i64, i32, i32, ptr, ptr, ptr, ptr, ptr, ptr, ptr, ptr, i64, i32, i32, i64, i32, i32 }
%"class.icu_75::UCharCharacterIterator" = type { %"class.icu_75::CharacterIterator", ptr }
%"class.icu_75::CharacterIterator" = type { %"class.icu_75::ForwardCharacterIterator", i32, i32, i32, i32 }
%"class.icu_75::ForwardCharacterIterator" = type { %"class.icu_75::UObject" }
%"class.icu_75::RBBIDataWrapper" = type <{ ptr, ptr, ptr, ptr, ptr, i32, [4 x i8], ptr, %"struct.std::atomic", [4 x i8], ptr, %"class.icu_75::UnicodeString", i8, [7 x i8] }>
%"struct.std::atomic" = type { %"struct.std::__atomic_base" }
%"struct.std::__atomic_base" = type { i32 }
%"class.icu_75::UnicodeString" = type { %"class.icu_75::Replaceable", %"union.icu_75::UnicodeString::StackBufferOrFields" }
%"class.icu_75::Replaceable" = type { %"class.icu_75::UObject" }
%"union.icu_75::UnicodeString::StackBufferOrFields" = type { %struct.anon.0, [32 x i8] }
%struct.anon.0 = type { i16, i32, i32, ptr }
%"struct.icu_75::RBBIStateTable" = type { i32, i32, i32, i32, i32, [1 x i8] }

; Function Attrs: mustprogress uwtable
define noundef nonnull align 8 dereferenceable(745) ptr @_ZN6icu_7522RuleBasedBreakIteratoraSERKS0_(ptr noundef nonnull align 8 dereferenceable(745) %this, ptr noundef nonnull align 8 dereferenceable(745) %that) #1 align 2 {
entry:
  %retval = alloca ptr, align 8
  %this.addr = alloca ptr, align 8
  %that.addr = alloca ptr, align 8
  %status = alloca i32, align 4
  store ptr %this, ptr %this.addr, align 8
  store ptr %that, ptr %that.addr, align 8
  %this1 = load ptr, ptr %this.addr, align 8
  %0 = load ptr, ptr %that.addr, align 8
  %cmp = icmp eq ptr %this1, %0
  br i1 %cmp, label %if.then, label %if.end

if.then:                                          ; preds = %entry
  store ptr %this1, ptr %retval, align 8
  br label %return

if.end:                                           ; preds = %entry
  %1 = load ptr, ptr %that.addr, align 8
  %call = call noundef nonnull align 8 dereferenceable(479) ptr @_ZN6icu_7513BreakIteratoraSERKS0_(ptr noundef nonnull align 8 dereferenceable(479) %this1, ptr noundef nonnull align 8 dereferenceable(479) %1)
  %fLanguageBreakEngines = getelementptr inbounds %"class.icu_75::RuleBasedBreakIterator", ptr %this1, i32 0, i32 10
  %2 = load ptr, ptr %fLanguageBreakEngines, align 8
  %cmp2 = icmp ne ptr %2, null
  br i1 %cmp2, label %if.then3, label %if.end6

if.then3:                                         ; preds = %if.end
  %fLanguageBreakEngines4 = getelementptr inbounds %"class.icu_75::RuleBasedBreakIterator", ptr %this1, i32 0, i32 10
  %3 = load ptr, ptr %fLanguageBreakEngines4, align 8
  %isnull = icmp eq ptr %3, null
  br i1 %isnull, label %delete.end, label %delete.notnull

delete.notnull:                                   ; preds = %if.then3
  %vtable = load ptr, ptr %3, align 8
  %vfn = getelementptr inbounds ptr, ptr %vtable, i64 1
  %4 = load ptr, ptr %vfn, align 8
  call void %4(ptr noundef nonnull align 8 dereferenceable(40) %3) #6
  br label %delete.end

delete.end:                                       ; preds = %delete.notnull, %if.then3
  %fLanguageBreakEngines5 = getelementptr inbounds %"class.icu_75::RuleBasedBreakIterator", ptr %this1, i32 0, i32 10
  store ptr null, ptr %fLanguageBreakEngines5, align 8
  br label %if.end6

if.end6:                                          ; preds = %delete.end, %if.end
  store i32 0, ptr %status, align 4
  %fText = getelementptr inbounds %"class.icu_75::RuleBasedBreakIterator", ptr %this1, i32 0, i32 2
  %5 = load ptr, ptr %that.addr, align 8
  %fText7 = getelementptr inbounds %"class.icu_75::RuleBasedBreakIterator", ptr %5, i32 0, i32 2
  %call8 = call ptr @utext_clone_75(ptr noundef %fText, ptr noundef %fText7, i8 noundef signext 0, i8 noundef signext 1, ptr noundef %status)
  %fCharIter = getelementptr inbounds %"class.icu_75::RuleBasedBreakIterator", ptr %this1, i32 0, i32 14
  %6 = load ptr, ptr %fCharIter, align 8
  %fSCharIter = getelementptr inbounds %"class.icu_75::RuleBasedBreakIterator", ptr %this1, i32 0, i32 15
  %cmp9 = icmp ne ptr %6, %fSCharIter
  br i1 %cmp9, label %if.then10, label %if.end17

if.then10:                                        ; preds = %if.end6
  %fCharIter11 = getelementptr inbounds %"class.icu_75::RuleBasedBreakIterator", ptr %this1, i32 0, i32 14
  %7 = load ptr, ptr %fCharIter11, align 8
  %isnull12 = icmp eq ptr %7, null
  br i1 %isnull12, label %delete.end16, label %delete.notnull13

delete.notnull13:                                 ; preds = %if.then10
  %vtable14 = load ptr, ptr %7, align 8
  %vfn15 = getelementptr inbounds ptr, ptr %vtable14, i64 1
  %8 = load ptr, ptr %vfn15, align 8
  call void %8(ptr noundef nonnull align 8 dereferenceable(24) %7) #6
  br label %delete.end16

delete.end16:                                     ; preds = %delete.notnull13, %if.then10
  br label %if.end17

if.end17:                                         ; preds = %delete.end16, %if.end6
  %fSCharIter18 = getelementptr inbounds %"class.icu_75::RuleBasedBreakIterator", ptr %this1, i32 0, i32 15
  %fCharIter19 = getelementptr inbounds %"class.icu_75::RuleBasedBreakIterator", ptr %this1, i32 0, i32 14
  store ptr %fSCharIter18, ptr %fCharIter19, align 8
  %9 = load ptr, ptr %that.addr, align 8
  %fCharIter20 = getelementptr inbounds %"class.icu_75::RuleBasedBreakIterator", ptr %9, i32 0, i32 14
  %10 = load ptr, ptr %fCharIter20, align 8
  %cmp21 = icmp ne ptr %10, null
  br i1 %cmp21, label %land.lhs.true, label %if.end31

land.lhs.true:                                    ; preds = %if.end17
  %11 = load ptr, ptr %that.addr, align 8
  %fCharIter22 = getelementptr inbounds %"class.icu_75::RuleBasedBreakIterator", ptr %11, i32 0, i32 14
  %12 = load ptr, ptr %fCharIter22, align 8
  %13 = load ptr, ptr %that.addr, align 8
  %fSCharIter23 = getelementptr inbounds %"class.icu_75::RuleBasedBreakIterator", ptr %13, i32 0, i32 15
  %cmp24 = icmp ne ptr %12, %fSCharIter23
  br i1 %cmp24, label %if.then25, label %if.end31

if.then25:                                        ; preds = %land.lhs.true
  %14 = load ptr, ptr %that.addr, align 8
  %fCharIter26 = getelementptr inbounds %"class.icu_75::RuleBasedBreakIterator", ptr %14, i32 0, i32 14
  %15 = load ptr, ptr %fCharIter26, align 8
  %vtable27 = load ptr, ptr %15, align 8
  %vfn28 = getelementptr inbounds ptr, ptr %vtable27, i64 8
  %16 = load ptr, ptr %vfn28, align 8
  %call29 = call noundef ptr %16(ptr noundef nonnull align 8 dereferenceable(24) %15)
  %fCharIter30 = getelementptr inbounds %"class.icu_75::RuleBasedBreakIterator", ptr %this1, i32 0, i32 14
  store ptr %call29, ptr %fCharIter30, align 8
  br label %if.end31

if.end31:                                         ; preds = %if.then25, %land.lhs.true, %if.end17
  %17 = load ptr, ptr %that.addr, align 8
  %fSCharIter32 = getelementptr inbounds %"class.icu_75::RuleBasedBreakIterator", ptr %17, i32 0, i32 15
  %fSCharIter33 = getelementptr inbounds %"class.icu_75::RuleBasedBreakIterator", ptr %this1, i32 0, i32 15
  %call34 = call noundef nonnull align 8 dereferenceable(32) ptr @_ZN6icu_7522UCharCharacterIteratoraSERKS0_(ptr noundef nonnull align 8 dereferenceable(32) %fSCharIter33, ptr noundef nonnull align 8 dereferenceable(32) %fSCharIter32)
  %fCharIter35 = getelementptr inbounds %"class.icu_75::RuleBasedBreakIterator", ptr %this1, i32 0, i32 14
  %18 = load ptr, ptr %fCharIter35, align 8
  %cmp36 = icmp eq ptr %18, null
  br i1 %cmp36, label %if.then37, label %if.end40

if.then37:                                        ; preds = %if.end31
  %fSCharIter38 = getelementptr inbounds %"class.icu_75::RuleBasedBreakIterator", ptr %this1, i32 0, i32 15
  %fCharIter39 = getelementptr inbounds %"class.icu_75::RuleBasedBreakIterator", ptr %this1, i32 0, i32 14
  store ptr %fSCharIter38, ptr %fCharIter39, align 8
  br label %if.end40

if.end40:                                         ; preds = %if.then37, %if.end31
  %fData = getelementptr inbounds %"class.icu_75::RuleBasedBreakIterator", ptr %this1, i32 0, i32 3
  %19 = load ptr, ptr %fData, align 8
  %cmp41 = icmp ne ptr %19, null
  br i1 %cmp41, label %if.then42, label %if.end45

if.then42:                                        ; preds = %if.end40
  %fData43 = getelementptr inbounds %"class.icu_75::RuleBasedBreakIterator", ptr %this1, i32 0, i32 3
  %20 = load ptr, ptr %fData43, align 8
  call void @_ZN6icu_7515RBBIDataWrapper15removeReferenceEv(ptr noundef nonnull align 8 dereferenceable(137) %20)
  %fData44 = getelementptr inbounds %"class.icu_75::RuleBasedBreakIterator", ptr %this1, i32 0, i32 3
  store ptr null, ptr %fData44, align 8
  br label %if.end45

if.end45:                                         ; preds = %if.then42, %if.end40
  %21 = load ptr, ptr %that.addr, align 8
  %fData46 = getelementptr inbounds %"class.icu_75::RuleBasedBreakIterator", ptr %21, i32 0, i32 3
  %22 = load ptr, ptr %fData46, align 8
  %cmp47 = icmp ne ptr %22, null
  br i1 %cmp47, label %if.then48, label %if.end52

if.then48:                                        ; preds = %if.end45
  %23 = load ptr, ptr %that.addr, align 8
  %fData49 = getelementptr inbounds %"class.icu_75::RuleBasedBreakIterator", ptr %23, i32 0, i32 3
  %24 = load ptr, ptr %fData49, align 8
  %call50 = call noundef ptr @_ZN6icu_7515RBBIDataWrapper12addReferenceEv(ptr noundef nonnull align 8 dereferenceable(137) %24)
  %fData51 = getelementptr inbounds %"class.icu_75::RuleBasedBreakIterator", ptr %this1, i32 0, i32 3
  store ptr %call50, ptr %fData51, align 8
  br label %if.end52

if.end52:                                         ; preds = %if.then48, %if.end45
  %fLookAheadMatches = getelementptr inbounds %"class.icu_75::RuleBasedBreakIterator", ptr %this1, i32 0, i32 18
  %25 = load ptr, ptr %fLookAheadMatches, align 8
  call void @uprv_free_75(ptr noundef %25)
  %fLookAheadMatches53 = getelementptr inbounds %"class.icu_75::RuleBasedBreakIterator", ptr %this1, i32 0, i32 18
  store ptr null, ptr %fLookAheadMatches53, align 8
  %fData54 = getelementptr inbounds %"class.icu_75::RuleBasedBreakIterator", ptr %this1, i32 0, i32 3
  %26 = load ptr, ptr %fData54, align 8
  %tobool = icmp ne ptr %26, null
  br i1 %tobool, label %land.lhs.true55, label %if.end64

land.lhs.true55:                                  ; preds = %if.end52
  %fData56 = getelementptr inbounds %"class.icu_75::RuleBasedBreakIterator", ptr %this1, i32 0, i32 3
  %27 = load ptr, ptr %fData56, align 8
  %fForwardTable = getelementptr inbounds %"class.icu_75::RBBIDataWrapper", ptr %27, i32 0, i32 1
  %28 = load ptr, ptr %fForwardTable, align 8
  %fLookAheadResultsSize = getelementptr inbounds %"struct.icu_75::RBBIStateTable", ptr %28, i32 0, i32 3
  %29 = load i32, ptr %fLookAheadResultsSize, align 4
  %cmp57 = icmp ugt i32 %29, 0
  br i1 %cmp57, label %if.then58, label %if.end64

if.then58:                                        ; preds = %land.lhs.true55
  %fData59 = getelementptr inbounds %"class.icu_75::RuleBasedBreakIterator", ptr %this1, i32 0, i32 3
  %30 = load ptr, ptr %fData59, align 8
  %fForwardTable60 = getelementptr inbounds %"class.icu_75::RBBIDataWrapper", ptr %30, i32 0, i32 1
  %31 = load ptr, ptr %fForwardTable60, align 8
  %fLookAheadResultsSize61 = getelementptr inbounds %"struct.icu_75::RBBIStateTable", ptr %31, i32 0, i32 3
  %32 = load i32, ptr %fLookAheadResultsSize61, align 4
  %conv = zext i32 %32 to i64
  %mul = mul i64 %conv, 4
  %call62 = call noalias ptr @uprv_malloc_75(i64 noundef %mul) #7
  %fLookAheadMatches63 = getelementptr inbounds %"class.icu_75::RuleBasedBreakIterator", ptr %this1, i32 0, i32 18
  store ptr %call62, ptr %fLookAheadMatches63, align 8
  br label %if.end64

if.end64:                                         ; preds = %if.then58, %land.lhs.true55, %if.end52
  %33 = load ptr, ptr %that.addr, align 8
  %fPosition = getelementptr inbounds %"class.icu_75::RuleBasedBreakIterator", ptr %33, i32 0, i32 5
  %34 = load i32, ptr %fPosition, align 4
  %fPosition65 = getelementptr inbounds %"class.icu_75::RuleBasedBreakIterator", ptr %this1, i32 0, i32 5
  store i32 %34, ptr %fPosition65, align 4
  %35 = load ptr, ptr %that.addr, align 8
  %fRuleStatusIndex = getelementptr inbounds %"class.icu_75::RuleBasedBreakIterator", ptr %35, i32 0, i32 6
  %36 = load i32, ptr %fRuleStatusIndex, align 8
  %fRuleStatusIndex66 = getelementptr inbounds %"class.icu_75::RuleBasedBreakIterator", ptr %this1, i32 0, i32 6
  store i32 %36, ptr %fRuleStatusIndex66, align 8
  %37 = load ptr, ptr %that.addr, align 8
  %fDone = getelementptr inbounds %"class.icu_75::RuleBasedBreakIterator", ptr %37, i32 0, i32 16
  %38 = load i8, ptr %fDone, align 8
  %tobool67 = trunc i8 %38 to i1
  %fDone68 = getelementptr inbounds %"class.icu_75::RuleBasedBreakIterator", ptr %this1, i32 0, i32 16
  %frombool = zext i1 %tobool67 to i8
  store i8 %frombool, ptr %fDone68, align 8
  %fBreakCache = getelementptr inbounds %"class.icu_75::RuleBasedBreakIterator", ptr %this1, i32 0, i32 8
  %39 = load ptr, ptr %fBreakCache, align 8
  %fPosition69 = getelementptr inbounds %"class.icu_75::RuleBasedBreakIterator", ptr %this1, i32 0, i32 5
  %40 = load i32, ptr %fPosition69, align 4
  %fRuleStatusIndex70 = getelementptr inbounds %"class.icu_75::RuleBasedBreakIterator", ptr %this1, i32 0, i32 6
  %41 = load i32, ptr %fRuleStatusIndex70, align 8
  call void @_ZN6icu_7522RuleBasedBreakIterator10BreakCache5resetEii(ptr noundef nonnull align 8 dereferenceable(832) %39, i32 noundef %40, i32 noundef %41)
  %fDictionaryCache = getelementptr inbounds %"class.icu_75::RuleBasedBreakIterator", ptr %this1, i32 0, i32 9
  %42 = load ptr, ptr %fDictionaryCache, align 8
  call void @_ZN6icu_7522RuleBasedBreakIterator15DictionaryCache5resetEv(ptr noundef nonnull align 8 dereferenceable(60) %42)
  store ptr %this1, ptr %retval, align 8
  br label %return

return:                                           ; preds = %if.end64, %if.then
  %43 = load ptr, ptr %retval, align 8
  ret ptr %43
}