; Function Attrs: mustprogress uwtable
define noundef nonnull align 8 dereferenceable(745) ptr @_ZN6icu_7522RuleBasedBreakIteratoraSERKS0_(ptr noundef nonnull returned align 8 dereferenceable(745) %this, ptr noundef nonnull align 8 dereferenceable(745) %that) local_unnamed_addr #1 align 2 {
entry:
  %status = alloca i32, align 4
  %cmp = icmp eq ptr %this, %that
  br i1 %cmp, label %return, label %if.end

if.end:                                           ; preds = %entry
  %call = tail call noundef nonnull align 8 dereferenceable(479) ptr @_ZN6icu_7513BreakIteratoraSERKS0_(ptr noundef nonnull align 8 dereferenceable(479) %this, ptr noundef nonnull align 8 dereferenceable(479) %that)
  %fLanguageBreakEngines = getelementptr inbounds i8, ptr %this, i64 664
  %0 = load ptr, ptr %fLanguageBreakEngines, align 8
  %cmp2.not = icmp eq ptr %0, null
  br i1 %cmp2.not, label %if.end6, label %delete.notnull

delete.notnull:                                   ; preds = %if.end
  %vtable = load ptr, ptr %0, align 8
  %vfn = getelementptr inbounds i8, ptr %vtable, i64 8
  %1 = load ptr, ptr %vfn, align 8
  tail call void %1(ptr noundef nonnull align 8 dereferenceable(40) %0) #15
  store ptr null, ptr %fLanguageBreakEngines, align 8
  br label %if.end6

if.end6:                                          ; preds = %delete.notnull, %if.end
  store i32 0, ptr %status, align 4
  %fText = getelementptr inbounds i8, ptr %this, i64 480
  %fText7 = getelementptr inbounds i8, ptr %that, i64 480
  %call8 = call ptr @utext_clone_75(ptr noundef nonnull %fText, ptr noundef nonnull %fText7, i8 noundef signext 0, i8 noundef signext 1, ptr noundef nonnull %status)
  %fCharIter = getelementptr inbounds i8, ptr %this, i64 688
  %2 = load ptr, ptr %fCharIter, align 8
  %fSCharIter = getelementptr inbounds i8, ptr %this, i64 696
  %cmp9.not = icmp eq ptr %2, %fSCharIter
  %isnull12 = icmp eq ptr %2, null
  %or.cond = or i1 %cmp9.not, %isnull12
  br i1 %or.cond, label %if.end17, label %delete.notnull13

delete.notnull13:                                 ; preds = %if.end6
  %vtable14 = load ptr, ptr %2, align 8
  %vfn15 = getelementptr inbounds i8, ptr %vtable14, i64 8
  %3 = load ptr, ptr %vfn15, align 8
  call void %3(ptr noundef nonnull align 8 dereferenceable(24) %2) #15
  br label %if.end17

if.end17:                                         ; preds = %delete.notnull13, %if.end6
  store ptr %fSCharIter, ptr %fCharIter, align 8
  %fCharIter20 = getelementptr inbounds i8, ptr %that, i64 688
  %4 = load ptr, ptr %fCharIter20, align 8
  %cmp21.not = icmp eq ptr %4, null
  %fSCharIter23 = getelementptr inbounds i8, ptr %that, i64 696
  %cmp24.not = icmp eq ptr %4, %fSCharIter23
  %or.cond19 = select i1 %cmp21.not, i1 true, i1 %cmp24.not
  br i1 %or.cond19, label %if.end31, label %if.then25

if.then25:                                        ; preds = %if.end17
  %vtable27 = load ptr, ptr %4, align 8
  %vfn28 = getelementptr inbounds i8, ptr %vtable27, i64 64
  %5 = load ptr, ptr %vfn28, align 8
  %call29 = call noundef ptr %5(ptr noundef nonnull align 8 dereferenceable(24) %4)
  store ptr %call29, ptr %fCharIter, align 8
  br label %if.end31

if.end31:                                         ; preds = %if.then25, %if.end17
  %call34 = call noundef nonnull align 8 dereferenceable(32) ptr @_ZN6icu_7522UCharCharacterIteratoraSERKS0_(ptr noundef nonnull align 8 dereferenceable(32) %fSCharIter, ptr noundef nonnull align 8 dereferenceable(32) %fSCharIter23)
  %6 = load ptr, ptr %fCharIter, align 8
  %cmp36 = icmp eq ptr %6, null
  br i1 %cmp36, label %if.then37, label %if.end40

if.then37:                                        ; preds = %if.end31
  store ptr %fSCharIter, ptr %fCharIter, align 8
  br label %if.end40

if.end40:                                         ; preds = %if.then37, %if.end31
  %fData = getelementptr inbounds i8, ptr %this, i64 624
  %7 = load ptr, ptr %fData, align 8
  %cmp41.not = icmp eq ptr %7, null
  br i1 %cmp41.not, label %if.end45, label %if.then42

if.then42:                                        ; preds = %if.end40
  call void @_ZN6icu_7515RBBIDataWrapper15removeReferenceEv(ptr noundef nonnull align 8 dereferenceable(137) %7)
  store ptr null, ptr %fData, align 8
  br label %if.end45

if.end45:                                         ; preds = %if.then42, %if.end40
  %fData46 = getelementptr inbounds i8, ptr %that, i64 624
  %8 = load ptr, ptr %fData46, align 8
  %cmp47.not = icmp eq ptr %8, null
  br i1 %cmp47.not, label %if.end52, label %if.then48

if.then48:                                        ; preds = %if.end45
  %call50 = call noundef ptr @_ZN6icu_7515RBBIDataWrapper12addReferenceEv(ptr noundef nonnull align 8 dereferenceable(137) %8)
  store ptr %call50, ptr %fData, align 8
  br label %if.end52

if.end52:                                         ; preds = %if.then48, %if.end45
  %fLookAheadMatches = getelementptr inbounds i8, ptr %this, i64 736
  %9 = load ptr, ptr %fLookAheadMatches, align 8
  call void @uprv_free_75(ptr noundef %9)
  store ptr null, ptr %fLookAheadMatches, align 8
  %10 = load ptr, ptr %fData, align 8
  %tobool.not = icmp eq ptr %10, null
  br i1 %tobool.not, label %if.end64, label %land.lhs.true55

land.lhs.true55:                                  ; preds = %if.end52
  %fForwardTable = getelementptr inbounds i8, ptr %10, i64 8
  %11 = load ptr, ptr %fForwardTable, align 8
  %fLookAheadResultsSize = getelementptr inbounds i8, ptr %11, i64 12
  %12 = load i32, ptr %fLookAheadResultsSize, align 4
  %cmp57.not = icmp eq i32 %12, 0
  br i1 %cmp57.not, label %if.end64, label %if.then58

if.then58:                                        ; preds = %land.lhs.true55
  %conv = zext i32 %12 to i64
  %mul = shl nuw nsw i64 %conv, 2
  %call62 = call noalias ptr @uprv_malloc_75(i64 noundef %mul) #16
  store ptr %call62, ptr %fLookAheadMatches, align 8
  br label %if.end64

if.end64:                                         ; preds = %if.then58, %land.lhs.true55, %if.end52
  %fPosition = getelementptr inbounds i8, ptr %that, i64 636
  %13 = load i32, ptr %fPosition, align 4
  %fPosition65 = getelementptr inbounds i8, ptr %this, i64 636
  store i32 %13, ptr %fPosition65, align 4
  %fRuleStatusIndex = getelementptr inbounds i8, ptr %that, i64 640
  %14 = load i32, ptr %fRuleStatusIndex, align 8
  %fRuleStatusIndex66 = getelementptr inbounds i8, ptr %this, i64 640
  store i32 %14, ptr %fRuleStatusIndex66, align 8
  %fDone = getelementptr inbounds i8, ptr %that, i64 728
  %15 = load i8, ptr %fDone, align 8
  %16 = and i8 %15, 1
  %fDone68 = getelementptr inbounds i8, ptr %this, i64 728
  store i8 %16, ptr %fDone68, align 8
  %fBreakCache = getelementptr inbounds i8, ptr %this, i64 648
  %17 = load ptr, ptr %fBreakCache, align 8
  call void @_ZN6icu_7522RuleBasedBreakIterator10BreakCache5resetEii(ptr noundef nonnull align 8 dereferenceable(832) %17, i32 noundef %13, i32 noundef %14)
  %fDictionaryCache = getelementptr inbounds i8, ptr %this, i64 656
  %18 = load ptr, ptr %fDictionaryCache, align 8
  call void @_ZN6icu_7522RuleBasedBreakIterator15DictionaryCache5resetEv(ptr noundef nonnull align 8 dereferenceable(60) %18)
  br label %return

return:                                           ; preds = %entry, %if.end64
  ret ptr %this
}